target datalayout = "e-m:e-p270:32:32-p271:32:32-p272:64:64-i64:64-i128:128-f80:128-n8:16:32:64-S128"
target triple = "x86_64-pc-linux-gnu"

; Function Attrs: nounwind uwtable
define internal void @ac3_downmix_5_to_2_symmetric_c(ptr noundef %0, ptr noundef %1, i32 noundef %2) #0 {
  %4 = alloca ptr, align 8
  %5 = alloca ptr, align 8
  %6 = alloca i32, align 4
  %7 = alloca i32, align 4
  %8 = alloca float, align 4
  %9 = alloca float, align 4
  %10 = alloca float, align 4
  %11 = alloca float, align 4
  %12 = alloca float, align 4
  store ptr %0, ptr %4, align 8, !tbaa !35
  store ptr %1, ptr %5, align 8, !tbaa !35
  store i32 %2, ptr %6, align 4, !tbaa !14
  call void @llvm.lifetime.start.p0(i64 4, ptr %7) #6
  call void @llvm.lifetime.start.p0(i64 4, ptr %8) #6
  call void @llvm.lifetime.start.p0(i64 4, ptr %9) #6
  call void @llvm.lifetime.start.p0(i64 4, ptr %10) #6
  %13 = load ptr, ptr %5, align 8, !tbaa !35
  %14 = getelementptr inbounds ptr, ptr %13, i64 0
  %15 = load ptr, ptr %14, align 8, !tbaa !38
  %16 = getelementptr inbounds float, ptr %15, i64 0
  %17 = load float, ptr %16, align 4, !tbaa !40
  store float %17, ptr %10, align 4, !tbaa !40
  call void @llvm.lifetime.start.p0(i64 4, ptr %11) #6
  %18 = load ptr, ptr %5, align 8, !tbaa !35
  %19 = getelementptr inbounds ptr, ptr %18, i64 0
  %20 = load ptr, ptr %19, align 8, !tbaa !38
  %21 = getelementptr inbounds float, ptr %20, i64 1
  %22 = load float, ptr %21, align 4, !tbaa !40
  store float %22, ptr %11, align 4, !tbaa !40
  call void @llvm.lifetime.start.p0(i64 4, ptr %12) #6
  %23 = load ptr, ptr %5, align 8, !tbaa !35
  %24 = getelementptr inbounds ptr, ptr %23, i64 0
  %25 = load ptr, ptr %24, align 8, !tbaa !38
  %26 = getelementptr inbounds float, ptr %25, i64 3
  %27 = load float, ptr %26, align 4, !tbaa !40
  store float %27, ptr %12, align 4, !tbaa !40
  store i32 0, ptr %7, align 4, !tbaa !14
  br label %28

28:                                               ; preds = %101, %3
  %29 = load i32, ptr %7, align 4, !tbaa !14
  %30 = load i32, ptr %6, align 4, !tbaa !14
  %31 = icmp slt i32 %29, %30
  br i1 %31, label %32, label %104

32:                                               ; preds = %28
  %33 = load ptr, ptr %4, align 8, !tbaa !35
  %34 = getelementptr inbounds ptr, ptr %33, i64 0
  %35 = load ptr, ptr %34, align 8, !tbaa !38
  %36 = load i32, ptr %7, align 4, !tbaa !14
  %37 = sext i32 %36 to i64
  %38 = getelementptr inbounds float, ptr %35, i64 %37
  %39 = load float, ptr %38, align 4, !tbaa !40
  %40 = load float, ptr %10, align 4, !tbaa !40
  %41 = load ptr, ptr %4, align 8, !tbaa !35
  %42 = getelementptr inbounds ptr, ptr %41, i64 1
  %43 = load ptr, ptr %42, align 8, !tbaa !38
  %44 = load i32, ptr %7, align 4, !tbaa !14
  %45 = sext i32 %44 to i64
  %46 = getelementptr inbounds float, ptr %43, i64 %45
  %47 = load float, ptr %46, align 4, !tbaa !40
  %48 = load float, ptr %11, align 4, !tbaa !40
  %49 = fmul nsz float %47, %48
  %50 = call nsz float @llvm.fmuladd.f32(float %39, float %40, float %49)
  %51 = load ptr, ptr %4, align 8, !tbaa !35
  %52 = getelementptr inbounds ptr, ptr %51, i64 3
  %53 = load ptr, ptr %52, align 8, !tbaa !38
  %54 = load i32, ptr %7, align 4, !tbaa !14
  %55 = sext i32 %54 to i64
  %56 = getelementptr inbounds float, ptr %53, i64 %55
  %57 = load float, ptr %56, align 4, !tbaa !40
  %58 = load float, ptr %12, align 4, !tbaa !40
  %59 = call nsz float @llvm.fmuladd.f32(float %57, float %58, float %50)
  store float %59, ptr %8, align 4, !tbaa !40
  %60 = load ptr, ptr %4, align 8, !tbaa !35
  %61 = getelementptr inbounds ptr, ptr %60, i64 1
  %62 = load ptr, ptr %61, align 8, !tbaa !38
  %63 = load i32, ptr %7, align 4, !tbaa !14
  %64 = sext i32 %63 to i64
  %65 = getelementptr inbounds float, ptr %62, i64 %64
  %66 = load float, ptr %65, align 4, !tbaa !40
  %67 = load float, ptr %11, align 4, !tbaa !40
  %68 = load ptr, ptr %4, align 8, !tbaa !35
  %69 = getelementptr inbounds ptr, ptr %68, i64 2
  %70 = load ptr, ptr %69, align 8, !tbaa !38
  %71 = load i32, ptr %7, align 4, !tbaa !14
  %72 = sext i32 %71 to i64
  %73 = getelementptr inbounds float, ptr %70, i64 %72
  %74 = load float, ptr %73, align 4, !tbaa !40
  %75 = load float, ptr %10, align 4, !tbaa !40
  %76 = fmul nsz float %74, %75
  %77 = call nsz float @llvm.fmuladd.f32(float %66, float %67, float %76)
  %78 = load ptr, ptr %4, align 8, !tbaa !35
  %79 = getelementptr inbounds ptr, ptr %78, i64 4
  %80 = load ptr, ptr %79, align 8, !tbaa !38
  %81 = load i32, ptr %7, align 4, !tbaa !14
  %82 = sext i32 %81 to i64
  %83 = getelementptr inbounds float, ptr %80, i64 %82
  %84 = load float, ptr %83, align 4, !tbaa !40
  %85 = load float, ptr %12, align 4, !tbaa !40
  %86 = call nsz float @llvm.fmuladd.f32(float %84, float %85, float %77)
  store float %86, ptr %9, align 4, !tbaa !40
  %87 = load float, ptr %8, align 4, !tbaa !40
  %88 = load ptr, ptr %4, align 8, !tbaa !35
  %89 = getelementptr inbounds ptr, ptr %88, i64 0
  %90 = load ptr, ptr %89, align 8, !tbaa !38
  %91 = load i32, ptr %7, align 4, !tbaa !14
  %92 = sext i32 %91 to i64
  %93 = getelementptr inbounds float, ptr %90, i64 %92
  store float %87, ptr %93, align 4, !tbaa !40
  %94 = load float, ptr %9, align 4, !tbaa !40
  %95 = load ptr, ptr %4, align 8, !tbaa !35
  %96 = getelementptr inbounds ptr, ptr %95, i64 1
  %97 = load ptr, ptr %96, align 8, !tbaa !38
  %98 = load i32, ptr %7, align 4, !tbaa !14
  %99 = sext i32 %98 to i64
  %100 = getelementptr inbounds float, ptr %97, i64 %99
  store float %94, ptr %100, align 4, !tbaa !40
  br label %101

101:                                              ; preds = %32
  %102 = load i32, ptr %7, align 4, !tbaa !14
  %103 = add nsw i32 %102, 1
  store i32 %103, ptr %7, align 4, !tbaa !14
  br label %28, !llvm.loop !42

104:                                              ; preds = %28
  call void @llvm.lifetime.end.p0(i64 4, ptr %12) #6
  call void @llvm.lifetime.end.p0(i64 4, ptr %11) #6
  call void @llvm.lifetime.end.p0(i64 4, ptr %10) #6
  call void @llvm.lifetime.end.p0(i64 4, ptr %9) #6
  call void @llvm.lifetime.end.p0(i64 4, ptr %8) #6
  call void @llvm.lifetime.end.p0(i64 4, ptr %7) #6
  ret void
}