; Function Attrs: nofree norecurse nosync nounwind memory(readwrite, inaccessiblemem: none) uwtable
define internal void @ac3_downmix_5_to_2_symmetric_c(ptr noundef readonly captures(none) %0, ptr noundef readonly captures(none) %1, i32 noundef %2) #1 {
  %4 = load ptr, ptr %1, align 8, !tbaa !27
  %5 = load float, ptr %4, align 4, !tbaa !29
  %6 = getelementptr inbounds nuw i8, ptr %4, i64 4
  %7 = load float, ptr %6, align 4, !tbaa !29
  %8 = getelementptr inbounds nuw i8, ptr %4, i64 12
  %9 = load float, ptr %8, align 4, !tbaa !29
  %10 = icmp sgt i32 %2, 0
  br i1 %10, label %.lr.ph, label %._crit_edge

.lr.ph:                                           ; preds = %3
  %11 = load ptr, ptr %0, align 8, !tbaa !27
  %12 = getelementptr inbounds nuw i8, ptr %0, i64 8
  %13 = load ptr, ptr %12, align 8, !tbaa !27
  %14 = getelementptr inbounds nuw i8, ptr %0, i64 24
  %15 = load ptr, ptr %14, align 8, !tbaa !27
  %16 = getelementptr inbounds nuw i8, ptr %0, i64 16
  %17 = load ptr, ptr %16, align 8, !tbaa !27
  %18 = getelementptr inbounds nuw i8, ptr %0, i64 32
  %19 = load ptr, ptr %18, align 8, !tbaa !27
  %wide.trip.count = zext nneg i32 %2 to i64
  br label %20

20:                                               ; preds = %.lr.ph, %20
  %indvars.iv = phi i64 [ 0, %.lr.ph ], [ %indvars.iv.next, %20 ]
  %21 = getelementptr inbounds nuw float, ptr %11, i64 %indvars.iv
  %22 = load float, ptr %21, align 4, !tbaa !29
  %23 = getelementptr inbounds nuw float, ptr %13, i64 %indvars.iv
  %24 = load float, ptr %23, align 4, !tbaa !29
  %25 = fmul nsz float %7, %24
  %26 = tail call nsz float @llvm.fmuladd.f32(float %22, float %5, float %25)
  %27 = getelementptr inbounds nuw float, ptr %15, i64 %indvars.iv
  %28 = load float, ptr %27, align 4, !tbaa !29
  %29 = tail call nsz float @llvm.fmuladd.f32(float %28, float %9, float %26)
  %30 = getelementptr inbounds nuw float, ptr %17, i64 %indvars.iv
  %31 = load float, ptr %30, align 4, !tbaa !29
  %32 = fmul nsz float %5, %31
  %33 = tail call nsz float @llvm.fmuladd.f32(float %24, float %7, float %32)
  %34 = getelementptr inbounds nuw float, ptr %19, i64 %indvars.iv
  %35 = load float, ptr %34, align 4, !tbaa !29
  %36 = tail call nsz float @llvm.fmuladd.f32(float %35, float %9, float %33)
  store float %29, ptr %21, align 4, !tbaa !29
  store float %36, ptr %23, align 4, !tbaa !29
  %indvars.iv.next = add nuw nsw i64 %indvars.iv, 1
  %exitcond.not = icmp eq i64 %indvars.iv.next, %wide.trip.count
  br i1 %exitcond.not, label %._crit_edge, label %20, !llvm.loop !35

._crit_edge:                                      ; preds = %20, %3
  ret void
}